target datalayout = "e-m:e-p270:32:32-p271:32:32-p272:64:64-i64:64-i128:128-f80:128-n8:16:32:64-S128"
target triple = "x86_64-pc-linux-gnu"

@.str.29 = private unnamed_addr constant [30 x i8] c"../openssl/test/ml_dsa_test.c\00", align 1
@.str.39 = private unnamed_addr constant [10 x i8] c"ML-DSA-65\00", align 1
@.str.44 = private unnamed_addr constant [2 x i8] c"1\00", align 1
@.str.74 = private unnamed_addr constant [10 x i8] c"ML-DSA-44\00", align 1
@.str.88 = private unnamed_addr constant [40 x i8] c"pkey = do_gen_key(\22ML-DSA-44\22, NULL, 0)\00", align 1
@.str.89 = private unnamed_addr constant [41 x i8] c"pkey2 = do_gen_key(\22ML-DSA-44\22, NULL, 0)\00", align 1
@.str.90 = private unnamed_addr constant [41 x i8] c"pkey3 = do_gen_key(\22ML-DSA-65\22, NULL, 0)\00", align 1
@.str.91 = private unnamed_addr constant [25 x i8] c"EVP_PKEY_eq(pkey, pkey2)\00", align 1
@.str.92 = private unnamed_addr constant [2 x i8] c"0\00", align 1
@.str.93 = private unnamed_addr constant [25 x i8] c"EVP_PKEY_eq(pkey, pkey3)\00", align 1
@.str.94 = private unnamed_addr constant [3 x i8] c"-1\00", align 1
@.str.95 = private unnamed_addr constant [47 x i8] c"EVP_PKEY_get_raw_private_key(pkey, NULL, &len)\00", align 1
@.str.96 = private unnamed_addr constant [4 x i8] c"len\00", align 1
@.str.97 = private unnamed_addr constant [27 x i8] c"priv = OPENSSL_malloc(len)\00", align 1
@.str.98 = private unnamed_addr constant [47 x i8] c"EVP_PKEY_get_raw_private_key(pkey, priv, &len)\00", align 1
@.str.99 = private unnamed_addr constant [46 x i8] c"EVP_PKEY_get_raw_public_key(pkey, NULL, &len)\00", align 1
@.str.100 = private unnamed_addr constant [26 x i8] c"pub = OPENSSL_malloc(len)\00", align 1
@.str.101 = private unnamed_addr constant [45 x i8] c"EVP_PKEY_get_raw_public_key(pkey, pub, &len)\00", align 1
@.str.102 = private unnamed_addr constant [68 x i8] c"ml_dsa_create_keypair(&pkey_pub, \22ML-DSA-44\22, NULL, 0, pub, len, 1)\00", align 1
@.str.103 = private unnamed_addr constant [28 x i8] c"EVP_PKEY_eq(pkey_pub, pkey)\00", align 1

; Function Attrs: nounwind uwtable
define internal i32 @ml_dsa_keygen_drbg_test() #0 {
  %1 = alloca i32, align 4
  %2 = alloca ptr, align 8
  %3 = alloca ptr, align 8
  %4 = alloca ptr, align 8
  %5 = alloca ptr, align 8
  %6 = alloca i64, align 8
  %7 = alloca ptr, align 8
  %8 = alloca ptr, align 8
  call void @llvm.lifetime.start.p0(i64 4, ptr %1) #4
  store i32 0, ptr %1, align 4, !tbaa !9
  call void @llvm.lifetime.start.p0(i64 8, ptr %2) #4
  store ptr null, ptr %2, align 8, !tbaa !15
  call void @llvm.lifetime.start.p0(i64 8, ptr %3) #4
  store ptr null, ptr %3, align 8, !tbaa !15
  call void @llvm.lifetime.start.p0(i64 8, ptr %4) #4
  store ptr null, ptr %4, align 8, !tbaa !15
  call void @llvm.lifetime.start.p0(i64 8, ptr %5) #4
  store ptr null, ptr %5, align 8, !tbaa !15
  call void @llvm.lifetime.start.p0(i64 8, ptr %6) #4
  store i64 0, ptr %6, align 8, !tbaa !22
  call void @llvm.lifetime.start.p0(i64 8, ptr %7) #4
  store ptr null, ptr %7, align 8, !tbaa !4
  call void @llvm.lifetime.start.p0(i64 8, ptr %8) #4
  store ptr null, ptr %8, align 8, !tbaa !4
  %9 = call ptr @do_gen_key(ptr noundef @.str.74, ptr noundef null, i64 noundef 0)
  store ptr %9, ptr %2, align 8, !tbaa !15
  %10 = call i32 @test_ptr(ptr noundef @.str.29, i32 noundef 317, ptr noundef @.str.88, ptr noundef %9)
  %11 = icmp ne i32 %10, 0
  br i1 %11, label %12, label %88

12:                                               ; preds = %0
  %13 = call ptr @do_gen_key(ptr noundef @.str.74, ptr noundef null, i64 noundef 0)
  store ptr %13, ptr %3, align 8, !tbaa !15
  %14 = call i32 @test_ptr(ptr noundef @.str.29, i32 noundef 318, ptr noundef @.str.89, ptr noundef %13)
  %15 = icmp ne i32 %14, 0
  br i1 %15, label %16, label %88

16:                                               ; preds = %12
  %17 = call ptr @do_gen_key(ptr noundef @.str.39, ptr noundef null, i64 noundef 0)
  store ptr %17, ptr %4, align 8, !tbaa !15
  %18 = call i32 @test_ptr(ptr noundef @.str.29, i32 noundef 319, ptr noundef @.str.90, ptr noundef %17)
  %19 = icmp ne i32 %18, 0
  br i1 %19, label %20, label %88

20:                                               ; preds = %16
  %21 = load ptr, ptr %2, align 8, !tbaa !15
  %22 = load ptr, ptr %3, align 8, !tbaa !15
  %23 = call i32 @EVP_PKEY_eq(ptr noundef %21, ptr noundef %22)
  %24 = call i32 @test_int_eq(ptr noundef @.str.29, i32 noundef 320, ptr noundef @.str.91, ptr noundef @.str.92, i32 noundef %23, i32 noundef 0)
  %25 = icmp ne i32 %24, 0
  br i1 %25, label %26, label %88

26:                                               ; preds = %20
  %27 = load ptr, ptr %2, align 8, !tbaa !15
  %28 = load ptr, ptr %4, align 8, !tbaa !15
  %29 = call i32 @EVP_PKEY_eq(ptr noundef %27, ptr noundef %28)
  %30 = call i32 @test_int_eq(ptr noundef @.str.29, i32 noundef 321, ptr noundef @.str.93, ptr noundef @.str.94, i32 noundef %29, i32 noundef -1)
  %31 = icmp ne i32 %30, 0
  br i1 %31, label %32, label %88

32:                                               ; preds = %26
  %33 = load ptr, ptr %2, align 8, !tbaa !15
  %34 = call i32 @EVP_PKEY_get_raw_private_key(ptr noundef %33, ptr noundef null, ptr noundef %6)
  %35 = call i32 @test_int_eq(ptr noundef @.str.29, i32 noundef 322, ptr noundef @.str.95, ptr noundef @.str.44, i32 noundef %34, i32 noundef 1)
  %36 = icmp ne i32 %35, 0
  br i1 %36, label %37, label %88

37:                                               ; preds = %32
  %38 = load i64, ptr %6, align 8, !tbaa !22
  %39 = trunc i64 %38 to i32
  %40 = call i32 @test_int_gt(ptr noundef @.str.29, i32 noundef 323, ptr noundef @.str.96, ptr noundef @.str.92, i32 noundef %39, i32 noundef 0)
  %41 = icmp ne i32 %40, 0
  br i1 %41, label %42, label %88

42:                                               ; preds = %37
  %43 = load i64, ptr %6, align 8, !tbaa !22
  %44 = call noalias ptr @CRYPTO_malloc(i64 noundef %43, ptr noundef @.str.29, i32 noundef 324)
  store ptr %44, ptr %7, align 8, !tbaa !4
  %45 = call i32 @test_ptr(ptr noundef @.str.29, i32 noundef 324, ptr noundef @.str.97, ptr noundef %44)
  %46 = icmp ne i32 %45, 0
  br i1 %46, label %47, label %88

47:                                               ; preds = %42
  %48 = load ptr, ptr %2, align 8, !tbaa !15
  %49 = load ptr, ptr %7, align 8, !tbaa !4
  %50 = call i32 @EVP_PKEY_get_raw_private_key(ptr noundef %48, ptr noundef %49, ptr noundef %6)
  %51 = call i32 @test_int_eq(ptr noundef @.str.29, i32 noundef 325, ptr noundef @.str.98, ptr noundef @.str.44, i32 noundef %50, i32 noundef 1)
  %52 = icmp ne i32 %51, 0
  br i1 %52, label %53, label %88

53:                                               ; preds = %47
  %54 = load ptr, ptr %2, align 8, !tbaa !15
  %55 = call i32 @EVP_PKEY_get_raw_public_key(ptr noundef %54, ptr noundef null, ptr noundef %6)
  %56 = call i32 @test_int_eq(ptr noundef @.str.29, i32 noundef 326, ptr noundef @.str.99, ptr noundef @.str.44, i32 noundef %55, i32 noundef 1)
  %57 = icmp ne i32 %56, 0
  br i1 %57, label %58, label %88

58:                                               ; preds = %53
  %59 = load i64, ptr %6, align 8, !tbaa !22
  %60 = trunc i64 %59 to i32
  %61 = call i32 @test_int_gt(ptr noundef @.str.29, i32 noundef 327, ptr noundef @.str.96, ptr noundef @.str.92, i32 noundef %60, i32 noundef 0)
  %62 = icmp ne i32 %61, 0
  br i1 %62, label %63, label %88

63:                                               ; preds = %58
  %64 = load i64, ptr %6, align 8, !tbaa !22
  %65 = call noalias ptr @CRYPTO_malloc(i64 noundef %64, ptr noundef @.str.29, i32 noundef 328)
  store ptr %65, ptr %8, align 8, !tbaa !4
  %66 = call i32 @test_ptr(ptr noundef @.str.29, i32 noundef 328, ptr noundef @.str.100, ptr noundef %65)
  %67 = icmp ne i32 %66, 0
  br i1 %67, label %68, label %88

68:                                               ; preds = %63
  %69 = load ptr, ptr %2, align 8, !tbaa !15
  %70 = load ptr, ptr %8, align 8, !tbaa !4
  %71 = call i32 @EVP_PKEY_get_raw_public_key(ptr noundef %69, ptr noundef %70, ptr noundef %6)
  %72 = call i32 @test_int_eq(ptr noundef @.str.29, i32 noundef 329, ptr noundef @.str.101, ptr noundef @.str.44, i32 noundef %71, i32 noundef 1)
  %73 = icmp ne i32 %72, 0
  br i1 %73, label %74, label %88

74:                                               ; preds = %68
  %75 = load ptr, ptr %8, align 8, !tbaa !4
  %76 = load i64, ptr %6, align 8, !tbaa !22
  %77 = call i32 @ml_dsa_create_keypair(ptr noundef %5, ptr noundef @.str.74, ptr noundef null, i64 noundef 0, ptr noundef %75, i64 noundef %76, i32 noundef 1)
  %78 = icmp ne i32 %77, 0
  %79 = zext i1 %78 to i32
  %80 = call i32 @test_true(ptr noundef @.str.29, i32 noundef 332, ptr noundef @.str.102, i32 noundef %79)
  %81 = icmp ne i32 %80, 0
  br i1 %81, label %82, label %88

82:                                               ; preds = %74
  %83 = load ptr, ptr %5, align 8, !tbaa !15
  %84 = load ptr, ptr %2, align 8, !tbaa !15
  %85 = call i32 @EVP_PKEY_eq(ptr noundef %83, ptr noundef %84)
  %86 = call i32 @test_int_eq(ptr noundef @.str.29, i32 noundef 334, ptr noundef @.str.103, ptr noundef @.str.44, i32 noundef %85, i32 noundef 1)
  %87 = icmp ne i32 %86, 0
  br i1 %87, label %89, label %88

88:                                               ; preds = %82, %74, %68, %63, %58, %53, %47, %42, %37, %32, %26, %20, %16, %12, %0
  br label %90

89:                                               ; preds = %82
  store i32 1, ptr %1, align 4, !tbaa !9
  br label %90

90:                                               ; preds = %89, %88
  %91 = load ptr, ptr %8, align 8, !tbaa !4
  call void @CRYPTO_free(ptr noundef %91, ptr noundef @.str.29, i32 noundef 338)
  %92 = load ptr, ptr %7, align 8, !tbaa !4
  call void @CRYPTO_free(ptr noundef %92, ptr noundef @.str.29, i32 noundef 339)
  %93 = load ptr, ptr %2, align 8, !tbaa !15
  call void @EVP_PKEY_free(ptr noundef %93)
  %94 = load ptr, ptr %3, align 8, !tbaa !15
  call void @EVP_PKEY_free(ptr noundef %94)
  %95 = load ptr, ptr %4, align 8, !tbaa !15
  call void @EVP_PKEY_free(ptr noundef %95)
  %96 = load ptr, ptr %5, align 8, !tbaa !15
  call void @EVP_PKEY_free(ptr noundef %96)
  %97 = load i32, ptr %1, align 4, !tbaa !9
  call void @llvm.lifetime.end.p0(i64 8, ptr %8) #4
  call void @llvm.lifetime.end.p0(i64 8, ptr %7) #4
  call void @llvm.lifetime.end.p0(i64 8, ptr %6) #4
  call void @llvm.lifetime.end.p0(i64 8, ptr %5) #4
  call void @llvm.lifetime.end.p0(i64 8, ptr %4) #4
  call void @llvm.lifetime.end.p0(i64 8, ptr %3) #4
  call void @llvm.lifetime.end.p0(i64 8, ptr %2) #4
  call void @llvm.lifetime.end.p0(i64 4, ptr %1) #4
  ret i32 %97
}