; Function Attrs: nounwind uwtable
define internal range(i32 0, 2) i32 @ml_dsa_keygen_drbg_test() #1 {
  %1 = alloca ptr, align 8
  %2 = alloca i64, align 8
  call void @llvm.lifetime.start.p0(i64 8, ptr nonnull %1) #5
  store ptr null, ptr %1, align 8, !tbaa !16
  call void @llvm.lifetime.start.p0(i64 8, ptr nonnull %2) #5
  store i64 0, ptr %2, align 8, !tbaa !13
  %3 = tail call fastcc ptr @do_gen_key(ptr noundef nonnull @.str.74, ptr noundef null, i64 noundef 0)
  %4 = tail call i32 @test_ptr(ptr noundef nonnull @.str.29, i32 noundef 317, ptr noundef nonnull @.str.88, ptr noundef %3) #5
  %.not = icmp eq i32 %4, 0
  br i1 %.not, label %53, label %5

5:                                                ; preds = %0
  %6 = tail call fastcc ptr @do_gen_key(ptr noundef nonnull @.str.74, ptr noundef null, i64 noundef 0)
  %7 = tail call i32 @test_ptr(ptr noundef nonnull @.str.29, i32 noundef 318, ptr noundef nonnull @.str.89, ptr noundef %6) #5
  %.not21 = icmp eq i32 %7, 0
  br i1 %.not21, label %53, label %8

8:                                                ; preds = %5
  %9 = tail call fastcc ptr @do_gen_key(ptr noundef nonnull @.str.39, ptr noundef null, i64 noundef 0)
  %10 = tail call i32 @test_ptr(ptr noundef nonnull @.str.29, i32 noundef 319, ptr noundef nonnull @.str.90, ptr noundef %9) #5
  %.not22 = icmp eq i32 %10, 0
  br i1 %.not22, label %53, label %11

11:                                               ; preds = %8
  %12 = tail call i32 @EVP_PKEY_eq(ptr noundef %3, ptr noundef %6) #5
  %13 = tail call i32 @test_int_eq(ptr noundef nonnull @.str.29, i32 noundef 320, ptr noundef nonnull @.str.91, ptr noundef nonnull @.str.92, i32 noundef %12, i32 noundef 0) #5
  %.not23 = icmp eq i32 %13, 0
  br i1 %.not23, label %53, label %14

14:                                               ; preds = %11
  %15 = tail call i32 @EVP_PKEY_eq(ptr noundef %3, ptr noundef %9) #5
  %16 = tail call i32 @test_int_eq(ptr noundef nonnull @.str.29, i32 noundef 321, ptr noundef nonnull @.str.93, ptr noundef nonnull @.str.94, i32 noundef %15, i32 noundef -1) #5
  %.not24 = icmp eq i32 %16, 0
  br i1 %.not24, label %53, label %17

17:                                               ; preds = %14
  %18 = call i32 @EVP_PKEY_get_raw_private_key(ptr noundef %3, ptr noundef null, ptr noundef nonnull %2) #5
  %19 = call i32 @test_int_eq(ptr noundef nonnull @.str.29, i32 noundef 322, ptr noundef nonnull @.str.95, ptr noundef nonnull @.str.44, i32 noundef %18, i32 noundef 1) #5
  %.not25 = icmp eq i32 %19, 0
  br i1 %.not25, label %53, label %20

20:                                               ; preds = %17
  %21 = load i64, ptr %2, align 8, !tbaa !13
  %22 = trunc i64 %21 to i32
  %23 = call i32 @test_int_gt(ptr noundef nonnull @.str.29, i32 noundef 323, ptr noundef nonnull @.str.96, ptr noundef nonnull @.str.92, i32 noundef %22, i32 noundef 0) #5
  %.not26 = icmp eq i32 %23, 0
  br i1 %.not26, label %53, label %24

24:                                               ; preds = %20
  %25 = load i64, ptr %2, align 8, !tbaa !13
  %26 = call noalias ptr @CRYPTO_malloc(i64 noundef %25, ptr noundef nonnull @.str.29, i32 noundef 324) #5
  %27 = call i32 @test_ptr(ptr noundef nonnull @.str.29, i32 noundef 324, ptr noundef nonnull @.str.97, ptr noundef %26) #5
  %.not27 = icmp eq i32 %27, 0
  br i1 %.not27, label %53, label %28

28:                                               ; preds = %24
  %29 = call i32 @EVP_PKEY_get_raw_private_key(ptr noundef %3, ptr noundef %26, ptr noundef nonnull %2) #5
  %30 = call i32 @test_int_eq(ptr noundef nonnull @.str.29, i32 noundef 325, ptr noundef nonnull @.str.98, ptr noundef nonnull @.str.44, i32 noundef %29, i32 noundef 1) #5
  %.not28 = icmp eq i32 %30, 0
  br i1 %.not28, label %53, label %31

31:                                               ; preds = %28
  %32 = call i32 @EVP_PKEY_get_raw_public_key(ptr noundef %3, ptr noundef null, ptr noundef nonnull %2) #5
  %33 = call i32 @test_int_eq(ptr noundef nonnull @.str.29, i32 noundef 326, ptr noundef nonnull @.str.99, ptr noundef nonnull @.str.44, i32 noundef %32, i32 noundef 1) #5
  %.not29 = icmp eq i32 %33, 0
  br i1 %.not29, label %53, label %34

34:                                               ; preds = %31
  %35 = load i64, ptr %2, align 8, !tbaa !13
  %36 = trunc i64 %35 to i32
  %37 = call i32 @test_int_gt(ptr noundef nonnull @.str.29, i32 noundef 327, ptr noundef nonnull @.str.96, ptr noundef nonnull @.str.92, i32 noundef %36, i32 noundef 0) #5
  %.not30 = icmp eq i32 %37, 0
  br i1 %.not30, label %53, label %38

38:                                               ; preds = %34
  %39 = load i64, ptr %2, align 8, !tbaa !13
  %40 = call noalias ptr @CRYPTO_malloc(i64 noundef %39, ptr noundef nonnull @.str.29, i32 noundef 328) #5
  %41 = call i32 @test_ptr(ptr noundef nonnull @.str.29, i32 noundef 328, ptr noundef nonnull @.str.100, ptr noundef %40) #5
  %.not31 = icmp eq i32 %41, 0
  br i1 %.not31, label %53, label %42

42:                                               ; preds = %38
  %43 = call i32 @EVP_PKEY_get_raw_public_key(ptr noundef %3, ptr noundef %40, ptr noundef nonnull %2) #5
  %44 = call i32 @test_int_eq(ptr noundef nonnull @.str.29, i32 noundef 329, ptr noundef nonnull @.str.101, ptr noundef nonnull @.str.44, i32 noundef %43, i32 noundef 1) #5
  %.not32 = icmp eq i32 %44, 0
  br i1 %.not32, label %53, label %45

45:                                               ; preds = %42
  %46 = load i64, ptr %2, align 8, !tbaa !13
  %47 = call fastcc i32 @ml_dsa_create_keypair(ptr noundef %1, ptr noundef nonnull @.str.74, ptr noundef null, i64 noundef 0, ptr noundef %40, i64 noundef %46, i32 noundef 1)
  %48 = call i32 @test_true(ptr noundef nonnull @.str.29, i32 noundef 332, ptr noundef nonnull @.str.102, i32 noundef %47) #5
  %.not33 = icmp eq i32 %48, 0
  br i1 %.not33, label %53, label %49

49:                                               ; preds = %45
  %50 = load ptr, ptr %1, align 8, !tbaa !16
  %51 = call i32 @EVP_PKEY_eq(ptr noundef %50, ptr noundef %3) #5
  %52 = call i32 @test_int_eq(ptr noundef nonnull @.str.29, i32 noundef 334, ptr noundef nonnull @.str.103, ptr noundef nonnull @.str.44, i32 noundef %51, i32 noundef 1) #5
  %.not34 = icmp ne i32 %52, 0
  %spec.select = zext i1 %.not34 to i32
  br label %53

53:                                               ; preds = %49, %0, %5, %8, %11, %14, %17, %20, %24, %28, %31, %34, %38, %42, %45
  %.020 = phi i32 [ 0, %45 ], [ 0, %42 ], [ 0, %38 ], [ 0, %34 ], [ 0, %31 ], [ 0, %28 ], [ 0, %24 ], [ 0, %20 ], [ 0, %17 ], [ 0, %14 ], [ 0, %11 ], [ 0, %8 ], [ 0, %5 ], [ 0, %0 ], [ %spec.select, %49 ]
  %.019 = phi ptr [ %6, %45 ], [ %6, %42 ], [ %6, %38 ], [ %6, %34 ], [ %6, %31 ], [ %6, %28 ], [ %6, %24 ], [ %6, %20 ], [ %6, %17 ], [ %6, %14 ], [ %6, %11 ], [ %6, %8 ], [ %6, %5 ], [ null, %0 ], [ %6, %49 ]
  %.018 = phi ptr [ %9, %45 ], [ %9, %42 ], [ %9, %38 ], [ %9, %34 ], [ %9, %31 ], [ %9, %28 ], [ %9, %24 ], [ %9, %20 ], [ %9, %17 ], [ %9, %14 ], [ %9, %11 ], [ %9, %8 ], [ null, %5 ], [ null, %0 ], [ %9, %49 ]
  %.017 = phi ptr [ %26, %45 ], [ %26, %42 ], [ %26, %38 ], [ %26, %34 ], [ %26, %31 ], [ %26, %28 ], [ %26, %24 ], [ null, %20 ], [ null, %17 ], [ null, %14 ], [ null, %11 ], [ null, %8 ], [ null, %5 ], [ null, %0 ], [ %26, %49 ]
  %.0 = phi ptr [ %40, %45 ], [ %40, %42 ], [ %40, %38 ], [ null, %34 ], [ null, %31 ], [ null, %28 ], [ null, %24 ], [ null, %20 ], [ null, %17 ], [ null, %14 ], [ null, %11 ], [ null, %8 ], [ null, %5 ], [ null, %0 ], [ %40, %49 ]
  call void @CRYPTO_free(ptr noundef %.0, ptr noundef nonnull @.str.29, i32 noundef 338) #5
  call void @CRYPTO_free(ptr noundef %.017, ptr noundef nonnull @.str.29, i32 noundef 339) #5
  call void @EVP_PKEY_free(ptr noundef %3) #5
  call void @EVP_PKEY_free(ptr noundef %.019) #5
  call void @EVP_PKEY_free(ptr noundef %.018) #5
  %54 = load ptr, ptr %1, align 8, !tbaa !16
  call void @EVP_PKEY_free(ptr noundef %54) #5
  call void @llvm.lifetime.end.p0(i64 8, ptr nonnull %2) #5
  call void @llvm.lifetime.end.p0(i64 8, ptr nonnull %1) #5
  ret i32 %.020
}